target datalayout = "e-m:e-p270:32:32-p271:32:32-p272:64:64-i64:64-i128:128-f80:128-n8:16:32:64-S128"
target triple = "x86_64-pc-linux-gnu"

%struct.mbedtls_mpi = type { i32, i64, ptr }

; Function Attrs: mustprogress uwtable
define hidden i32 @mbedtls_rsa_validate_params(ptr noundef %0, ptr noundef %1, ptr noundef %2, ptr noundef %3, ptr noundef %4, ptr noundef %5, ptr noundef %6) #0 {
  %8 = alloca ptr, align 8
  %9 = alloca ptr, align 8
  %10 = alloca ptr, align 8
  %11 = alloca ptr, align 8
  %12 = alloca ptr, align 8
  %13 = alloca ptr, align 8
  %14 = alloca ptr, align 8
  %15 = alloca i32, align 4
  %16 = alloca %struct.mbedtls_mpi, align 8
  %17 = alloca %struct.mbedtls_mpi, align 8
  store ptr %0, ptr %8, align 8, !tbaa !3
  store ptr %1, ptr %9, align 8, !tbaa !3
  store ptr %2, ptr %10, align 8, !tbaa !3
  store ptr %3, ptr %11, align 8, !tbaa !3
  store ptr %4, ptr %12, align 8, !tbaa !3
  store ptr %5, ptr %13, align 8, !tbaa !21
  store ptr %6, ptr %14, align 8, !tbaa !21
  call void @llvm.lifetime.start.p0(i64 4, ptr %15) #4
  store i32 0, ptr %15, align 4, !tbaa !8
  call void @llvm.lifetime.start.p0(i64 24, ptr %16) #4
  call void @llvm.lifetime.start.p0(i64 24, ptr %17) #4
  call void @mbedtls_mpi_init(ptr noundef %16)
  call void @mbedtls_mpi_init(ptr noundef %17)
  %18 = load ptr, ptr %9, align 8, !tbaa !3
  %19 = icmp ne ptr %18, null
  br i1 %19, label %20, label %45

20:                                               ; preds = %7
  %21 = load ptr, ptr %10, align 8, !tbaa !3
  %22 = icmp ne ptr %21, null
  br i1 %22, label %23, label %45

23:                                               ; preds = %20
  %24 = load ptr, ptr %8, align 8, !tbaa !3
  %25 = icmp ne ptr %24, null
  br i1 %25, label %26, label %45

26:                                               ; preds = %23
  br label %27

27:                                               ; preds = %26
  %28 = load ptr, ptr %9, align 8, !tbaa !3
  %29 = load ptr, ptr %10, align 8, !tbaa !3
  %30 = call i32 @mbedtls_mpi_mul_mpi(ptr noundef %16, ptr noundef %28, ptr noundef %29)
  store i32 %30, ptr %15, align 4, !tbaa !8
  %31 = icmp ne i32 %30, 0
  br i1 %31, label %32, label %33

32:                                               ; preds = %27
  br label %167

33:                                               ; preds = %27
  br label %34

34:                                               ; preds = %33
  br label %35

35:                                               ; preds = %34
  %36 = load ptr, ptr %8, align 8, !tbaa !3
  %37 = call i32 @mbedtls_mpi_cmp_int(ptr noundef %36, i64 noundef 1)
  %38 = icmp sle i32 %37, 0
  br i1 %38, label %43, label %39

39:                                               ; preds = %35
  %40 = load ptr, ptr %8, align 8, !tbaa !3
  %41 = call i32 @mbedtls_mpi_cmp_mpi(ptr noundef %16, ptr noundef %40)
  %42 = icmp ne i32 %41, 0
  br i1 %42, label %43, label %44

43:                                               ; preds = %39, %35
  store i32 -16896, ptr %15, align 4, !tbaa !8
  br label %167

44:                                               ; preds = %39
  br label %45

45:                                               ; preds = %44, %23, %20, %7
  %46 = load ptr, ptr %8, align 8, !tbaa !3
  %47 = icmp ne ptr %46, null
  br i1 %47, label %48, label %74

48:                                               ; preds = %45
  %49 = load ptr, ptr %11, align 8, !tbaa !3
  %50 = icmp ne ptr %49, null
  br i1 %50, label %51, label %74

51:                                               ; preds = %48
  %52 = load ptr, ptr %12, align 8, !tbaa !3
  %53 = icmp ne ptr %52, null
  br i1 %53, label %54, label %74

54:                                               ; preds = %51
  %55 = load ptr, ptr %11, align 8, !tbaa !3
  %56 = call i32 @mbedtls_mpi_cmp_int(ptr noundef %55, i64 noundef 1)
  %57 = icmp sle i32 %56, 0
  br i1 %57, label %72, label %58

58:                                               ; preds = %54
  %59 = load ptr, ptr %12, align 8, !tbaa !3
  %60 = call i32 @mbedtls_mpi_cmp_int(ptr noundef %59, i64 noundef 1)
  %61 = icmp sle i32 %60, 0
  br i1 %61, label %72, label %62

62:                                               ; preds = %58
  %63 = load ptr, ptr %11, align 8, !tbaa !3
  %64 = load ptr, ptr %8, align 8, !tbaa !3
  %65 = call i32 @mbedtls_mpi_cmp_mpi(ptr noundef %63, ptr noundef %64)
  %66 = icmp sge i32 %65, 0
  br i1 %66, label %72, label %67

67:                                               ; preds = %62
  %68 = load ptr, ptr %12, align 8, !tbaa !3
  %69 = load ptr, ptr %8, align 8, !tbaa !3
  %70 = call i32 @mbedtls_mpi_cmp_mpi(ptr noundef %68, ptr noundef %69)
  %71 = icmp sge i32 %70, 0
  br i1 %71, label %72, label %73

72:                                               ; preds = %67, %62, %58, %54
  store i32 -16896, ptr %15, align 4, !tbaa !8
  br label %167

73:                                               ; preds = %67
  br label %74

74:                                               ; preds = %73, %51, %48, %45
  %75 = load ptr, ptr %9, align 8, !tbaa !3
  %76 = icmp ne ptr %75, null
  br i1 %76, label %77, label %166

77:                                               ; preds = %74
  %78 = load ptr, ptr %10, align 8, !tbaa !3
  %79 = icmp ne ptr %78, null
  br i1 %79, label %80, label %166

80:                                               ; preds = %77
  %81 = load ptr, ptr %11, align 8, !tbaa !3
  %82 = icmp ne ptr %81, null
  br i1 %82, label %83, label %166

83:                                               ; preds = %80
  %84 = load ptr, ptr %12, align 8, !tbaa !3
  %85 = icmp ne ptr %84, null
  br i1 %85, label %86, label %166

86:                                               ; preds = %83
  %87 = load ptr, ptr %9, align 8, !tbaa !3
  %88 = call i32 @mbedtls_mpi_cmp_int(ptr noundef %87, i64 noundef 1)
  %89 = icmp sle i32 %88, 0
  br i1 %89, label %94, label %90

90:                                               ; preds = %86
  %91 = load ptr, ptr %10, align 8, !tbaa !3
  %92 = call i32 @mbedtls_mpi_cmp_int(ptr noundef %91, i64 noundef 1)
  %93 = icmp sle i32 %92, 0
  br i1 %93, label %94, label %95

94:                                               ; preds = %90, %86
  store i32 -16896, ptr %15, align 4, !tbaa !8
  br label %167

95:                                               ; preds = %90
  br label %96

96:                                               ; preds = %95
  %97 = load ptr, ptr %11, align 8, !tbaa !3
  %98 = load ptr, ptr %12, align 8, !tbaa !3
  %99 = call i32 @mbedtls_mpi_mul_mpi(ptr noundef %16, ptr noundef %97, ptr noundef %98)
  store i32 %99, ptr %15, align 4, !tbaa !8
  %100 = icmp ne i32 %99, 0
  br i1 %100, label %101, label %102

101:                                              ; preds = %96
  br label %167

102:                                              ; preds = %96
  br label %103

103:                                              ; preds = %102
  br label %104

104:                                              ; preds = %103
  br label %105

105:                                              ; preds = %104
  %106 = call i32 @mbedtls_mpi_sub_int(ptr noundef %16, ptr noundef %16, i64 noundef 1)
  store i32 %106, ptr %15, align 4, !tbaa !8
  %107 = icmp ne i32 %106, 0
  br i1 %107, label %108, label %109

108:                                              ; preds = %105
  br label %167

109:                                              ; preds = %105
  br label %110

110:                                              ; preds = %109
  br label %111

111:                                              ; preds = %110
  br label %112

112:                                              ; preds = %111
  %113 = load ptr, ptr %9, align 8, !tbaa !3
  %114 = call i32 @mbedtls_mpi_sub_int(ptr noundef %17, ptr noundef %113, i64 noundef 1)
  store i32 %114, ptr %15, align 4, !tbaa !8
  %115 = icmp ne i32 %114, 0
  br i1 %115, label %116, label %117

116:                                              ; preds = %112
  br label %167

117:                                              ; preds = %112
  br label %118

118:                                              ; preds = %117
  br label %119

119:                                              ; preds = %118
  br label %120

120:                                              ; preds = %119
  %121 = call i32 @mbedtls_mpi_mod_mpi(ptr noundef %16, ptr noundef %16, ptr noundef %17)
  store i32 %121, ptr %15, align 4, !tbaa !8
  %122 = icmp ne i32 %121, 0
  br i1 %122, label %123, label %124

123:                                              ; preds = %120
  br label %167

124:                                              ; preds = %120
  br label %125

125:                                              ; preds = %124
  br label %126

126:                                              ; preds = %125
  %127 = call i32 @mbedtls_mpi_cmp_int(ptr noundef %16, i64 noundef 0)
  %128 = icmp ne i32 %127, 0
  br i1 %128, label %129, label %130

129:                                              ; preds = %126
  store i32 -16896, ptr %15, align 4, !tbaa !8
  br label %167

130:                                              ; preds = %126
  br label %131

131:                                              ; preds = %130
  %132 = load ptr, ptr %11, align 8, !tbaa !3
  %133 = load ptr, ptr %12, align 8, !tbaa !3
  %134 = call i32 @mbedtls_mpi_mul_mpi(ptr noundef %16, ptr noundef %132, ptr noundef %133)
  store i32 %134, ptr %15, align 4, !tbaa !8
  %135 = icmp ne i32 %134, 0
  br i1 %135, label %136, label %137

136:                                              ; preds = %131
  br label %167

137:                                              ; preds = %131
  br label %138

138:                                              ; preds = %137
  br label %139

139:                                              ; preds = %138
  br label %140

140:                                              ; preds = %139
  %141 = call i32 @mbedtls_mpi_sub_int(ptr noundef %16, ptr noundef %16, i64 noundef 1)
  store i32 %141, ptr %15, align 4, !tbaa !8
  %142 = icmp ne i32 %141, 0
  br i1 %142, label %143, label %144

143:                                              ; preds = %140
  br label %167

144:                                              ; preds = %140
  br label %145

145:                                              ; preds = %144
  br label %146

146:                                              ; preds = %145
  br label %147

147:                                              ; preds = %146
  %148 = load ptr, ptr %10, align 8, !tbaa !3
  %149 = call i32 @mbedtls_mpi_sub_int(ptr noundef %17, ptr noundef %148, i64 noundef 1)
  store i32 %149, ptr %15, align 4, !tbaa !8
  %150 = icmp ne i32 %149, 0
  br i1 %150, label %151, label %152

151:                                              ; preds = %147
  br label %167

152:                                              ; preds = %147
  br label %153

153:                                              ; preds = %152
  br label %154

154:                                              ; preds = %153
  br label %155

155:                                              ; preds = %154
  %156 = call i32 @mbedtls_mpi_mod_mpi(ptr noundef %16, ptr noundef %16, ptr noundef %17)
  store i32 %156, ptr %15, align 4, !tbaa !8
  %157 = icmp ne i32 %156, 0
  br i1 %157, label %158, label %159

158:                                              ; preds = %155
  br label %167

159:                                              ; preds = %155
  br label %160

160:                                              ; preds = %159
  br label %161

161:                                              ; preds = %160
  %162 = call i32 @mbedtls_mpi_cmp_int(ptr noundef %16, i64 noundef 0)
  %163 = icmp ne i32 %162, 0
  br i1 %163, label %164, label %165

164:                                              ; preds = %161
  store i32 -16896, ptr %15, align 4, !tbaa !8
  br label %167

165:                                              ; preds = %161
  br label %166

166:                                              ; preds = %165, %83, %80, %77, %74
  br label %167

167:                                              ; preds = %166, %164, %158, %151, %143, %136, %129, %123, %116, %108, %101, %94, %72, %43, %32
  call void @mbedtls_mpi_free(ptr noundef %16)
  call void @mbedtls_mpi_free(ptr noundef %17)
  %168 = load i32, ptr %15, align 4, !tbaa !8
  %169 = icmp ne i32 %168, 0
  br i1 %169, label %170, label %176

170:                                              ; preds = %167
  %171 = load i32, ptr %15, align 4, !tbaa !8
  %172 = icmp ne i32 %171, -16896
  br i1 %172, label %173, label %176

173:                                              ; preds = %170
  %174 = load i32, ptr %15, align 4, !tbaa !8
  %175 = add nsw i32 %174, -16896
  store i32 %175, ptr %15, align 4, !tbaa !8
  br label %176

176:                                              ; preds = %173, %170, %167
  %177 = load i32, ptr %15, align 4, !tbaa !8
  call void @llvm.lifetime.end.p0(i64 24, ptr %17) #4
  call void @llvm.lifetime.end.p0(i64 24, ptr %16) #4
  call void @llvm.lifetime.end.p0(i64 4, ptr %15) #4
  ret i32 %177
}