; Function Attrs: mustprogress uwtable
define hidden range(i32 -2147483648, 2147466752) i32 @mbedtls_rsa_validate_params(ptr noundef %0, ptr noundef %1, ptr noundef %2, ptr noundef %3, ptr noundef %4, ptr noundef readnone captures(none) %5, ptr noundef readnone captures(none) %6) local_unnamed_addr #0 {
  %8 = alloca %struct.mbedtls_mpi, align 8
  %9 = alloca %struct.mbedtls_mpi, align 8
  call void @llvm.lifetime.start.p0(i64 24, ptr nonnull %8) #3
  call void @llvm.lifetime.start.p0(i64 24, ptr nonnull %9) #3
  call void @mbedtls_mpi_init(ptr noundef nonnull %8)
  call void @mbedtls_mpi_init(ptr noundef nonnull %9)
  %10 = icmp ne ptr %1, null
  %11 = icmp ne ptr %2, null
  %or.cond = and i1 %10, %11
  %12 = icmp ne ptr %0, null
  %or.cond3 = and i1 %12, %or.cond
  br i1 %or.cond3, label %13, label %20

13:                                               ; preds = %7
  %14 = call i32 @mbedtls_mpi_mul_mpi(ptr noundef nonnull %8, ptr noundef nonnull %1, ptr noundef nonnull %2)
  %.not = icmp eq i32 %14, 0
  br i1 %.not, label %15, label %62

15:                                               ; preds = %13
  %16 = call i32 @mbedtls_mpi_cmp_int(ptr noundef nonnull %0, i64 noundef 1)
  %17 = icmp slt i32 %16, 1
  br i1 %17, label %.thread, label %18

18:                                               ; preds = %15
  %19 = call i32 @mbedtls_mpi_cmp_mpi(ptr noundef nonnull %8, ptr noundef nonnull %0)
  %.not67 = icmp eq i32 %19, 0
  br i1 %.not67, label %20, label %.thread

20:                                               ; preds = %18, %7
  %21 = icmp ne ptr %3, null
  %or.cond5 = and i1 %12, %21
  %22 = icmp ne ptr %4, null
  %or.cond7 = and i1 %or.cond5, %22
  br i1 %or.cond7, label %23, label %35

23:                                               ; preds = %20
  %24 = call i32 @mbedtls_mpi_cmp_int(ptr noundef nonnull %3, i64 noundef 1)
  %25 = icmp slt i32 %24, 1
  br i1 %25, label %.thread, label %26

26:                                               ; preds = %23
  %27 = call i32 @mbedtls_mpi_cmp_int(ptr noundef nonnull %4, i64 noundef 1)
  %28 = icmp slt i32 %27, 1
  br i1 %28, label %.thread, label %29

29:                                               ; preds = %26
  %30 = call i32 @mbedtls_mpi_cmp_mpi(ptr noundef nonnull %3, ptr noundef nonnull %0)
  %31 = icmp sgt i32 %30, -1
  br i1 %31, label %.thread, label %32

32:                                               ; preds = %29
  %33 = call i32 @mbedtls_mpi_cmp_mpi(ptr noundef nonnull %4, ptr noundef nonnull %0)
  %34 = icmp sgt i32 %33, -1
  br i1 %34, label %.thread, label %35

35:                                               ; preds = %32, %20
  %or.cond11 = and i1 %or.cond, %21
  %or.cond13 = and i1 %or.cond11, %22
  br i1 %or.cond13, label %36, label %.thread

36:                                               ; preds = %35
  %37 = call i32 @mbedtls_mpi_cmp_int(ptr noundef nonnull %1, i64 noundef 1)
  %38 = icmp slt i32 %37, 1
  br i1 %38, label %.thread, label %39

39:                                               ; preds = %36
  %40 = call i32 @mbedtls_mpi_cmp_int(ptr noundef nonnull %2, i64 noundef 1)
  %41 = icmp slt i32 %40, 1
  br i1 %41, label %.thread, label %42

42:                                               ; preds = %39
  %43 = call i32 @mbedtls_mpi_mul_mpi(ptr noundef nonnull %8, ptr noundef nonnull %3, ptr noundef nonnull %4)
  %.not68 = icmp eq i32 %43, 0
  br i1 %.not68, label %44, label %62

44:                                               ; preds = %42
  %45 = call i32 @mbedtls_mpi_sub_int(ptr noundef nonnull %8, ptr noundef nonnull %8, i64 noundef 1)
  %.not69 = icmp eq i32 %45, 0
  br i1 %.not69, label %46, label %62

46:                                               ; preds = %44
  %47 = call i32 @mbedtls_mpi_sub_int(ptr noundef nonnull %9, ptr noundef nonnull %1, i64 noundef 1)
  %.not70 = icmp eq i32 %47, 0
  br i1 %.not70, label %48, label %62

48:                                               ; preds = %46
  %49 = call i32 @mbedtls_mpi_mod_mpi(ptr noundef nonnull %8, ptr noundef nonnull %8, ptr noundef nonnull %9)
  %.not71 = icmp eq i32 %49, 0
  br i1 %.not71, label %50, label %62

50:                                               ; preds = %48
  %51 = call i32 @mbedtls_mpi_cmp_int(ptr noundef nonnull %8, i64 noundef 0)
  %.not72 = icmp eq i32 %51, 0
  br i1 %.not72, label %52, label %.thread

52:                                               ; preds = %50
  %53 = call i32 @mbedtls_mpi_mul_mpi(ptr noundef nonnull %8, ptr noundef nonnull %3, ptr noundef nonnull %4)
  %.not73 = icmp eq i32 %53, 0
  br i1 %.not73, label %54, label %62

54:                                               ; preds = %52
  %55 = call i32 @mbedtls_mpi_sub_int(ptr noundef nonnull %8, ptr noundef nonnull %8, i64 noundef 1)
  %.not74 = icmp eq i32 %55, 0
  br i1 %.not74, label %56, label %62

56:                                               ; preds = %54
  %57 = call i32 @mbedtls_mpi_sub_int(ptr noundef nonnull %9, ptr noundef nonnull %2, i64 noundef 1)
  %.not75 = icmp eq i32 %57, 0
  br i1 %.not75, label %58, label %62

58:                                               ; preds = %56
  %59 = call i32 @mbedtls_mpi_mod_mpi(ptr noundef nonnull %8, ptr noundef nonnull %8, ptr noundef nonnull %9)
  %.not76 = icmp eq i32 %59, 0
  br i1 %.not76, label %60, label %62

60:                                               ; preds = %58
  %61 = call i32 @mbedtls_mpi_cmp_int(ptr noundef nonnull %8, i64 noundef 0)
  %.not77 = icmp eq i32 %61, 0
  %spec.select = select i1 %.not77, i32 0, i32 -16896
  br label %.thread

.thread:                                          ; preds = %60, %35, %18, %15, %32, %29, %26, %23, %39, %36, %50
  %.1.ph = phi i32 [ -16896, %50 ], [ -16896, %36 ], [ -16896, %39 ], [ -16896, %23 ], [ -16896, %26 ], [ -16896, %29 ], [ -16896, %32 ], [ -16896, %15 ], [ -16896, %18 ], [ 0, %35 ], [ %spec.select, %60 ]
  call void @mbedtls_mpi_free(ptr noundef nonnull %8)
  call void @mbedtls_mpi_free(ptr noundef nonnull %9)
  br label %64

62:                                               ; preds = %58, %56, %54, %52, %48, %46, %44, %42, %13
  %.1 = phi i32 [ %14, %13 ], [ %43, %42 ], [ %45, %44 ], [ %47, %46 ], [ %49, %48 ], [ %53, %52 ], [ %55, %54 ], [ %57, %56 ], [ %59, %58 ]
  call void @mbedtls_mpi_free(ptr noundef nonnull %8)
  call void @mbedtls_mpi_free(ptr noundef nonnull %9)
  %cond = icmp eq i32 %.1, -16896
  %63 = add nsw i32 %.1, -16896
  %spec.select79 = select i1 %cond, i32 -16896, i32 %63
  br label %64

64:                                               ; preds = %62, %.thread
  %.2 = phi i32 [ %.1.ph, %.thread ], [ %spec.select79, %62 ]
  call void @llvm.lifetime.end.p0(i64 24, ptr nonnull %9) #3
  call void @llvm.lifetime.end.p0(i64 24, ptr nonnull %8) #3
  ret i32 %.2
}